target datalayout = "e-m:e-p270:32:32-p271:32:32-p272:64:64-i64:64-i128:128-f80:128-n8:16:32:64-S128"
target triple = "x86_64-pc-linux-gnu"

%struct.CK_FUNCTION_LIST = type { %struct.CK_VERSION, ptr, ptr, ptr, ptr, ptr, ptr, ptr, ptr, ptr, ptr, ptr, ptr, ptr, ptr, ptr, ptr, ptr, ptr, ptr, ptr, ptr, ptr, ptr, ptr, ptr, ptr, ptr, ptr, ptr, ptr, ptr, ptr, ptr, ptr, ptr, ptr, ptr, ptr, ptr, ptr, ptr, ptr, ptr, ptr, ptr, ptr, ptr, ptr, ptr, ptr, ptr, ptr, ptr, ptr, ptr, ptr, ptr, ptr, ptr, ptr, ptr, ptr, ptr, ptr, ptr, ptr, ptr, ptr }
%struct.CK_VERSION = type { i8, i8 }
%struct.JNINativeInterface_ = type { ptr, ptr, ptr, ptr, ptr, ptr, ptr, ptr, ptr, ptr, ptr, ptr, ptr, ptr, ptr, ptr, ptr, ptr, ptr, ptr, ptr, ptr, ptr, ptr, ptr, ptr, ptr, ptr, ptr, ptr, ptr, ptr, ptr, ptr, ptr, ptr, ptr, ptr, ptr, ptr, ptr, ptr, ptr, ptr, ptr, ptr, ptr, ptr, ptr, ptr, ptr, ptr, ptr, ptr, ptr, ptr, ptr, ptr, ptr, ptr, ptr, ptr, ptr, ptr, ptr, ptr, ptr, ptr, ptr, ptr, ptr, ptr, ptr, ptr, ptr, ptr, ptr, ptr, ptr, ptr, ptr, ptr, ptr, ptr, ptr, ptr, ptr, ptr, ptr, ptr, ptr, ptr, ptr, ptr, ptr, ptr, ptr, ptr, ptr, ptr, ptr, ptr, ptr, ptr, ptr, ptr, ptr, ptr, ptr, ptr, ptr, ptr, ptr, ptr, ptr, ptr, ptr, ptr, ptr, ptr, ptr, ptr, ptr, ptr, ptr, ptr, ptr, ptr, ptr, ptr, ptr, ptr, ptr, ptr, ptr, ptr, ptr, ptr, ptr, ptr, ptr, ptr, ptr, ptr, ptr, ptr, ptr, ptr, ptr, ptr, ptr, ptr, ptr, ptr, ptr, ptr, ptr, ptr, ptr, ptr, ptr, ptr, ptr, ptr, ptr, ptr, ptr, ptr, ptr, ptr, ptr, ptr, ptr, ptr, ptr, ptr, ptr, ptr, ptr, ptr, ptr, ptr, ptr, ptr, ptr, ptr, ptr, ptr, ptr, ptr, ptr, ptr, ptr, ptr, ptr, ptr, ptr, ptr, ptr, ptr, ptr, ptr, ptr, ptr, ptr, ptr, ptr, ptr, ptr, ptr, ptr, ptr, ptr, ptr, ptr, ptr, ptr, ptr, ptr, ptr, ptr, ptr, ptr, ptr, ptr, ptr, ptr, ptr, ptr, ptr, ptr, ptr, ptr, ptr, ptr }
%struct.CK_MECHANISM = type { i64, ptr, i64 }
%struct.CK_SSL3_MASTER_KEY_DERIVE_PARAMS = type { %struct.CK_SSL3_RANDOM_DATA, ptr }
%struct.CK_SSL3_RANDOM_DATA = type { ptr, i64, ptr, i64 }
%struct.CK_TLS12_MASTER_KEY_DERIVE_PARAMS = type { %struct.CK_SSL3_RANDOM_DATA, ptr, i64 }
%struct.CK_SSL3_KEY_MAT_PARAMS = type { i64, i64, i64, i8, %struct.CK_SSL3_RANDOM_DATA, ptr }
%struct.CK_TLS12_KEY_MAT_PARAMS = type { i64, i64, i64, i8, %struct.CK_SSL3_RANDOM_DATA, ptr, i64 }

@.str.9 = private unnamed_addr constant [61 x i8] c"sun/security/pkcs11/wrapper/CK_SSL3_MASTER_KEY_DERIVE_PARAMS\00", align 1
@.str.10 = private unnamed_addr constant [62 x i8] c"sun/security/pkcs11/wrapper/CK_TLS12_MASTER_KEY_DERIVE_PARAMS\00", align 1
@.str.11 = private unnamed_addr constant [51 x i8] c"sun/security/pkcs11/wrapper/CK_SSL3_KEY_MAT_PARAMS\00", align 1
@.str.12 = private unnamed_addr constant [52 x i8] c"sun/security/pkcs11/wrapper/CK_TLS12_KEY_MAT_PARAMS\00", align 1

; Function Attrs: nounwind uwtable
define hidden void @tls12CopyBackKeyMatParams(ptr noundef %0, ptr noundef %1, ptr noundef %2) #0 {
  %4 = alloca ptr, align 8
  %5 = alloca ptr, align 8
  %6 = alloca ptr, align 8
  %7 = alloca ptr, align 8
  store ptr %0, ptr %4, align 8
  store ptr %1, ptr %5, align 8
  store ptr %2, ptr %6, align 8
  %8 = load ptr, ptr %5, align 8
  %9 = getelementptr inbounds %struct.CK_MECHANISM, ptr %8, i32 0, i32 1
  %10 = load ptr, ptr %9, align 8
  store ptr %10, ptr %7, align 8
  %11 = load ptr, ptr %7, align 8
  %12 = icmp ne ptr %11, null
  br i1 %12, label %13, label %22

13:                                               ; preds = %3
  %14 = load ptr, ptr %4, align 8
  %15 = load ptr, ptr %5, align 8
  %16 = load ptr, ptr %6, align 8
  %17 = load ptr, ptr %7, align 8
  %18 = getelementptr inbounds %struct.CK_TLS12_KEY_MAT_PARAMS, ptr %17, i32 0, i32 4
  %19 = load ptr, ptr %7, align 8
  %20 = getelementptr inbounds %struct.CK_TLS12_KEY_MAT_PARAMS, ptr %19, i32 0, i32 5
  %21 = load ptr, ptr %20, align 8
  call void @copyBackKeyMatParams(ptr noundef %14, ptr noundef %15, ptr noundef %16, ptr noundef %18, ptr noundef %21, ptr noundef @.str.12)
  br label %22

22:                                               ; preds = %13, %3
  ret void
}

; Function Attrs: nounwind uwtable
define hidden void @ssl3CopyBackKeyMatParams(ptr noundef %0, ptr noundef %1, ptr noundef %2) #0 {
  %4 = alloca ptr, align 8
  %5 = alloca ptr, align 8
  %6 = alloca ptr, align 8
  %7 = alloca ptr, align 8
  store ptr %0, ptr %4, align 8
  store ptr %1, ptr %5, align 8
  store ptr %2, ptr %6, align 8
  %8 = load ptr, ptr %5, align 8
  %9 = getelementptr inbounds %struct.CK_MECHANISM, ptr %8, i32 0, i32 1
  %10 = load ptr, ptr %9, align 8
  store ptr %10, ptr %7, align 8
  %11 = load ptr, ptr %7, align 8
  %12 = icmp ne ptr %11, null
  br i1 %12, label %13, label %22

13:                                               ; preds = %3
  %14 = load ptr, ptr %4, align 8
  %15 = load ptr, ptr %5, align 8
  %16 = load ptr, ptr %6, align 8
  %17 = load ptr, ptr %7, align 8
  %18 = getelementptr inbounds %struct.CK_SSL3_KEY_MAT_PARAMS, ptr %17, i32 0, i32 4
  %19 = load ptr, ptr %7, align 8
  %20 = getelementptr inbounds %struct.CK_SSL3_KEY_MAT_PARAMS, ptr %19, i32 0, i32 5
  %21 = load ptr, ptr %20, align 8
  call void @copyBackKeyMatParams(ptr noundef %14, ptr noundef %15, ptr noundef %16, ptr noundef %18, ptr noundef %21, ptr noundef @.str.11)
  br label %22

22:                                               ; preds = %13, %3
  ret void
}

; Function Attrs: nounwind uwtable
define hidden void @tls12CopyBackClientVersion(ptr noundef %0, ptr noundef %1, ptr noundef %2) #0 {
  %4 = alloca ptr, align 8
  %5 = alloca ptr, align 8
  %6 = alloca ptr, align 8
  %7 = alloca ptr, align 8
  store ptr %0, ptr %4, align 8
  store ptr %1, ptr %5, align 8
  store ptr %2, ptr %6, align 8
  %8 = load ptr, ptr %5, align 8
  %9 = getelementptr inbounds %struct.CK_MECHANISM, ptr %8, i32 0, i32 1
  %10 = load ptr, ptr %9, align 8
  store ptr %10, ptr %7, align 8
  %11 = load ptr, ptr %7, align 8
  %12 = icmp ne ptr %11, null
  br i1 %12, label %13, label %20

13:                                               ; preds = %3
  %14 = load ptr, ptr %4, align 8
  %15 = load ptr, ptr %5, align 8
  %16 = load ptr, ptr %6, align 8
  %17 = load ptr, ptr %7, align 8
  %18 = getelementptr inbounds %struct.CK_TLS12_MASTER_KEY_DERIVE_PARAMS, ptr %17, i32 0, i32 1
  %19 = load ptr, ptr %18, align 8
  call void @copyBackClientVersion(ptr noundef %14, ptr noundef %15, ptr noundef %16, ptr noundef %19, ptr noundef @.str.10)
  br label %20

20:                                               ; preds = %13, %3
  ret void
}

; Function Attrs: nounwind uwtable
define hidden void @ssl3CopyBackClientVersion(ptr noundef %0, ptr noundef %1, ptr noundef %2) #0 {
  %4 = alloca ptr, align 8
  %5 = alloca ptr, align 8
  %6 = alloca ptr, align 8
  %7 = alloca ptr, align 8
  store ptr %0, ptr %4, align 8
  store ptr %1, ptr %5, align 8
  store ptr %2, ptr %6, align 8
  %8 = load ptr, ptr %5, align 8
  %9 = getelementptr inbounds %struct.CK_MECHANISM, ptr %8, i32 0, i32 1
  %10 = load ptr, ptr %9, align 8
  store ptr %10, ptr %7, align 8
  %11 = load ptr, ptr %7, align 8
  %12 = icmp ne ptr %11, null
  br i1 %12, label %13, label %20

13:                                               ; preds = %3
  %14 = load ptr, ptr %4, align 8
  %15 = load ptr, ptr %5, align 8
  %16 = load ptr, ptr %6, align 8
  %17 = load ptr, ptr %7, align 8
  %18 = getelementptr inbounds %struct.CK_SSL3_MASTER_KEY_DERIVE_PARAMS, ptr %17, i32 0, i32 1
  %19 = load ptr, ptr %18, align 8
  call void @copyBackClientVersion(ptr noundef %14, ptr noundef %15, ptr noundef %16, ptr noundef %19, ptr noundef @.str.9)
  br label %20

20:                                               ; preds = %13, %3
  ret void
}

; Function Attrs: nounwind uwtable
define i64 @Java_sun_security_pkcs11_wrapper_PKCS11_C_1DeriveKey(ptr noundef %0, ptr noundef %1, i64 noundef %2, ptr noundef %3, i64 noundef %4, ptr noundef %5) #0 {
  %7 = alloca i64, align 8
  %8 = alloca ptr, align 8
  %9 = alloca ptr, align 8
  %10 = alloca i64, align 8
  %11 = alloca ptr, align 8
  %12 = alloca i64, align 8
  %13 = alloca ptr, align 8
  %14 = alloca i64, align 8
  %15 = alloca ptr, align 8
  %16 = alloca i64, align 8
  %17 = alloca ptr, align 8
  %18 = alloca i64, align 8
  %19 = alloca i64, align 8
  %20 = alloca i64, align 8
  %21 = alloca i64, align 8
  %22 = alloca ptr, align 8
  %23 = alloca ptr, align 8
  store ptr %0, ptr %8, align 8
  store ptr %1, ptr %9, align 8
  store i64 %2, ptr %10, align 8
  store ptr %3, ptr %11, align 8
  store i64 %4, ptr %12, align 8
  store ptr %5, ptr %13, align 8
  store ptr null, ptr %15, align 8
  store ptr null, ptr %17, align 8
  store i64 0, ptr %18, align 8
  store i64 0, ptr %19, align 8
  store i64 0, ptr %20, align 8
  store ptr %19, ptr %22, align 8
  %24 = load ptr, ptr %8, align 8
  %25 = load ptr, ptr %9, align 8
  %26 = call ptr @getFunctionList(ptr noundef %24, ptr noundef %25)
  store ptr %26, ptr %23, align 8
  %27 = load ptr, ptr %23, align 8
  %28 = icmp eq ptr %27, null
  br i1 %28, label %29, label %30

29:                                               ; preds = %6
  store i64 0, ptr %7, align 8
  br label %110

30:                                               ; preds = %6
  %31 = load i64, ptr %10, align 8
  store i64 %31, ptr %14, align 8
  %32 = load ptr, ptr %8, align 8
  %33 = load ptr, ptr %11, align 8
  %34 = call ptr @jMechanismToCKMechanismPtr(ptr noundef %32, ptr noundef %33)
  store ptr %34, ptr %15, align 8
  %35 = load ptr, ptr %8, align 8
  %36 = load ptr, ptr %35, align 8
  %37 = getelementptr inbounds %struct.JNINativeInterface_, ptr %36, i32 0, i32 228
  %38 = load ptr, ptr %37, align 8
  %39 = load ptr, ptr %8, align 8
  %40 = call zeroext i8 %38(ptr noundef %39)
  %41 = icmp ne i8 %40, 0
  br i1 %41, label %42, label %43

42:                                               ; preds = %30
  store i64 0, ptr %7, align 8
  br label %110

43:                                               ; preds = %30
  %44 = load i64, ptr %12, align 8
  store i64 %44, ptr %16, align 8
  %45 = load ptr, ptr %8, align 8
  %46 = load ptr, ptr %13, align 8
  call void @jAttributeArrayToCKAttributeArray(ptr noundef %45, ptr noundef %46, ptr noundef %17, ptr noundef %18)
  %47 = load ptr, ptr %8, align 8
  %48 = load ptr, ptr %47, align 8
  %49 = getelementptr inbounds %struct.JNINativeInterface_, ptr %48, i32 0, i32 228
  %50 = load ptr, ptr %49, align 8
  %51 = load ptr, ptr %8, align 8
  %52 = call zeroext i8 %50(ptr noundef %51)
  %53 = icmp ne i8 %52, 0
  br i1 %53, label %54, label %55

54:                                               ; preds = %43
  br label %104

55:                                               ; preds = %43
  %56 = load ptr, ptr %15, align 8
  %57 = getelementptr inbounds %struct.CK_MECHANISM, ptr %56, i32 0, i32 0
  %58 = load i64, ptr %57, align 8
  switch i64 %58, label %60 [
    i64 882, label %59
    i64 886, label %59
    i64 993, label %59
    i64 888, label %59
  ]

59:                                               ; preds = %55, %55, %55, %55
  store ptr null, ptr %22, align 8
  br label %61

60:                                               ; preds = %55
  br label %61

61:                                               ; preds = %60, %59
  %62 = load ptr, ptr %23, align 8
  %63 = getelementptr inbounds %struct.CK_FUNCTION_LIST, ptr %62, i32 0, i32 63
  %64 = load ptr, ptr %63, align 8
  %65 = load i64, ptr %14, align 8
  %66 = load ptr, ptr %15, align 8
  %67 = load i64, ptr %16, align 8
  %68 = load ptr, ptr %17, align 8
  %69 = load i64, ptr %18, align 8
  %70 = load ptr, ptr %22, align 8
  %71 = call i64 %64(i64 noundef %65, ptr noundef %66, i64 noundef %67, ptr noundef %68, i64 noundef %69, ptr noundef %70)
  store i64 %71, ptr %21, align 8
  %72 = load i64, ptr %19, align 8
  store i64 %72, ptr %20, align 8
  %73 = load ptr, ptr %15, align 8
  %74 = getelementptr inbounds %struct.CK_MECHANISM, ptr %73, i32 0, i32 0
  %75 = load i64, ptr %74, align 8
  switch i64 %75, label %96 [
    i64 881, label %76
    i64 885, label %76
    i64 992, label %80
    i64 882, label %84
    i64 886, label %84
    i64 993, label %88
    i64 888, label %92
  ]

76:                                               ; preds = %61, %61
  %77 = load ptr, ptr %8, align 8
  %78 = load ptr, ptr %15, align 8
  %79 = load ptr, ptr %11, align 8
  call void @ssl3CopyBackClientVersion(ptr noundef %77, ptr noundef %78, ptr noundef %79)
  br label %97

80:                                               ; preds = %61
  %81 = load ptr, ptr %8, align 8
  %82 = load ptr, ptr %15, align 8
  %83 = load ptr, ptr %11, align 8
  call void @tls12CopyBackClientVersion(ptr noundef %81, ptr noundef %82, ptr noundef %83)
  br label %97

84:                                               ; preds = %61, %61
  %85 = load ptr, ptr %8, align 8
  %86 = load ptr, ptr %15, align 8
  %87 = load ptr, ptr %11, align 8
  call void @ssl3CopyBackKeyMatParams(ptr noundef %85, ptr noundef %86, ptr noundef %87)
  br label %97

88:                                               ; preds = %61
  %89 = load ptr, ptr %8, align 8
  %90 = load ptr, ptr %15, align 8
  %91 = load ptr, ptr %11, align 8
  call void @tls12CopyBackKeyMatParams(ptr noundef %89, ptr noundef %90, ptr noundef %91)
  br label %97

92:                                               ; preds = %61
  %93 = load ptr, ptr %8, align 8
  %94 = load ptr, ptr %15, align 8
  %95 = load ptr, ptr %11, align 8
  call void @copyBackTLSPrfParams(ptr noundef %93, ptr noundef %94, ptr noundef %95)
  br label %97

96:                                               ; preds = %61
  br label %97

97:                                               ; preds = %96, %92, %88, %84, %80, %76
  %98 = load ptr, ptr %8, align 8
  %99 = load i64, ptr %21, align 8
  %100 = call i64 @ckAssertReturnValueOK(ptr noundef %98, i64 noundef %99)
  %101 = icmp ne i64 %100, 0
  br i1 %101, label %102, label %103

102:                                              ; preds = %97
  store i64 0, ptr %20, align 8
  br label %103

103:                                              ; preds = %102, %97
  br label %104

104:                                              ; preds = %103, %54
  %105 = load ptr, ptr %15, align 8
  call void @freeCKMechanismPtr(ptr noundef %105)
  %106 = load ptr, ptr %17, align 8
  %107 = load i64, ptr %18, align 8
  %108 = trunc i64 %107 to i32
  call void @freeCKAttributeArray(ptr noundef %106, i32 noundef %108)
  %109 = load i64, ptr %20, align 8
  store i64 %109, ptr %7, align 8
  br label %110

110:                                              ; preds = %104, %42, %29
  %111 = load i64, ptr %7, align 8
  ret i64 %111
}