; Function Attrs: nounwind uwtable
define i64 @Java_sun_security_pkcs11_wrapper_PKCS11_C_1DeriveKey(ptr noundef %0, ptr noundef %1, i64 noundef %2, ptr noundef %3, i64 noundef %4, ptr noundef %5) local_unnamed_addr #0 {
  %7 = alloca ptr, align 8
  %8 = alloca i64, align 8
  %9 = alloca i64, align 8
  store ptr null, ptr %7, align 8
  store i64 0, ptr %8, align 8
  store i64 0, ptr %9, align 8
  %10 = tail call ptr @getFunctionList(ptr noundef %0, ptr noundef %1) #5
  %11 = icmp eq ptr %10, null
  br i1 %11, label %64, label %12

12:                                               ; preds = %6
  %13 = tail call ptr @jMechanismToCKMechanismPtr(ptr noundef %0, ptr noundef %3) #5
  %14 = load ptr, ptr %0, align 8
  %15 = getelementptr inbounds i8, ptr %14, i64 1824
  %16 = load ptr, ptr %15, align 8
  %17 = tail call zeroext i8 %16(ptr noundef nonnull %0) #5
  %.not = icmp eq i8 %17, 0
  br i1 %.not, label %18, label %64

18:                                               ; preds = %12
  call void @jAttributeArrayToCKAttributeArray(ptr noundef nonnull %0, ptr noundef %5, ptr noundef nonnull %7, ptr noundef nonnull %8) #5
  %19 = load ptr, ptr %0, align 8
  %20 = getelementptr inbounds i8, ptr %19, i64 1824
  %21 = load ptr, ptr %20, align 8
  %22 = call zeroext i8 %21(ptr noundef nonnull %0) #5
  %.not42 = icmp eq i8 %22, 0
  br i1 %.not42, label %23, label %60

23:                                               ; preds = %18
  %24 = load i64, ptr %13, align 8
  switch i64 %24, label %26 [
    i64 882, label %25
    i64 886, label %25
    i64 993, label %25
    i64 888, label %25
  ]

25:                                               ; preds = %23, %23, %23, %23
  br label %26

26:                                               ; preds = %23, %25
  %.039 = phi ptr [ %9, %23 ], [ null, %25 ]
  %27 = getelementptr inbounds i8, ptr %10, i64 504
  %28 = load ptr, ptr %27, align 8
  %29 = load ptr, ptr %7, align 8
  %30 = load i64, ptr %8, align 8
  %31 = call i64 %28(i64 noundef %2, ptr noundef nonnull %13, i64 noundef %4, ptr noundef %29, i64 noundef %30, ptr noundef %.039) #5
  %32 = load i64, ptr %9, align 8
  %33 = load i64, ptr %13, align 8
  switch i64 %33, label %ssl3CopyBackClientVersion.exit [
    i64 881, label %34
    i64 885, label %34
    i64 992, label %40
    i64 882, label %46
    i64 886, label %46
    i64 993, label %52
    i64 888, label %58
  ]

34:                                               ; preds = %26, %26
  %35 = getelementptr inbounds i8, ptr %13, i64 8
  %36 = load ptr, ptr %35, align 8
  %.not.i = icmp eq ptr %36, null
  br i1 %.not.i, label %ssl3CopyBackClientVersion.exit, label %37

37:                                               ; preds = %34
  %38 = getelementptr inbounds i8, ptr %36, i64 32
  %39 = load ptr, ptr %38, align 8
  call fastcc void @copyBackClientVersion(ptr noundef nonnull %0, ptr noundef nonnull readonly %13, ptr noundef %3, ptr noundef %39, ptr noundef nonnull @.str.9)
  br label %ssl3CopyBackClientVersion.exit

40:                                               ; preds = %26
  %41 = getelementptr inbounds i8, ptr %13, i64 8
  %42 = load ptr, ptr %41, align 8
  %.not.i44 = icmp eq ptr %42, null
  br i1 %.not.i44, label %ssl3CopyBackClientVersion.exit, label %43

43:                                               ; preds = %40
  %44 = getelementptr inbounds i8, ptr %42, i64 32
  %45 = load ptr, ptr %44, align 8
  call fastcc void @copyBackClientVersion(ptr noundef nonnull %0, ptr noundef nonnull readonly %13, ptr noundef %3, ptr noundef %45, ptr noundef nonnull @.str.10)
  br label %ssl3CopyBackClientVersion.exit

46:                                               ; preds = %26, %26
  %47 = getelementptr inbounds i8, ptr %13, i64 8
  %48 = load ptr, ptr %47, align 8
  %.not.i45 = icmp eq ptr %48, null
  br i1 %.not.i45, label %ssl3CopyBackClientVersion.exit, label %49

49:                                               ; preds = %46
  %50 = getelementptr inbounds i8, ptr %48, i64 64
  %51 = load ptr, ptr %50, align 8
  call fastcc void @copyBackKeyMatParams(ptr noundef nonnull %0, ptr noundef nonnull readonly %13, ptr noundef %3, ptr noundef %51, ptr noundef nonnull @.str.11)
  br label %ssl3CopyBackClientVersion.exit

52:                                               ; preds = %26
  %53 = getelementptr inbounds i8, ptr %13, i64 8
  %54 = load ptr, ptr %53, align 8
  %.not.i46 = icmp eq ptr %54, null
  br i1 %.not.i46, label %ssl3CopyBackClientVersion.exit, label %55

55:                                               ; preds = %52
  %56 = getelementptr inbounds i8, ptr %54, i64 64
  %57 = load ptr, ptr %56, align 8
  call fastcc void @copyBackKeyMatParams(ptr noundef nonnull %0, ptr noundef nonnull readonly %13, ptr noundef %3, ptr noundef %57, ptr noundef nonnull @.str.12)
  br label %ssl3CopyBackClientVersion.exit

58:                                               ; preds = %26
  call void @copyBackTLSPrfParams(ptr noundef nonnull %0, ptr noundef nonnull %13, ptr noundef %3)
  br label %ssl3CopyBackClientVersion.exit

ssl3CopyBackClientVersion.exit:                   ; preds = %55, %52, %49, %46, %43, %40, %37, %34, %26, %58
  %59 = call i64 @ckAssertReturnValueOK(ptr noundef nonnull %0, i64 noundef %31) #5
  %.not43 = icmp eq i64 %59, 0
  %spec.select = select i1 %.not43, i64 %32, i64 0
  br label %60

60:                                               ; preds = %ssl3CopyBackClientVersion.exit, %18
  %.040 = phi i64 [ 0, %18 ], [ %spec.select, %ssl3CopyBackClientVersion.exit ]
  call void @freeCKMechanismPtr(ptr noundef %13) #5
  %61 = load ptr, ptr %7, align 8
  %62 = load i64, ptr %8, align 8
  %63 = trunc i64 %62 to i32
  call void @freeCKAttributeArray(ptr noundef %61, i32 noundef %63) #5
  br label %64

64:                                               ; preds = %12, %6, %60
  %.0 = phi i64 [ %.040, %60 ], [ 0, %6 ], [ 0, %12 ]
  ret i64 %.0
}